target datalayout = "e-m:e-p270:32:32-p271:32:32-p272:64:64-i64:64-i128:128-f80:128-n8:16:32:64-S128"
target triple = "x86_64-pc-linux-gnu"

%struct.H5O_mdci_t = type { i64, i64 }

; Function Attrs: nounwind uwtable
define internal i32 @H5O__mdci_encode(ptr noundef %0, i1 noundef zeroext %1, i64 noundef %2, ptr noundef %3, ptr noundef %4) #0 {
  %6 = alloca ptr, align 8
  %7 = alloca i8, align 1
  %8 = alloca i64, align 8
  %9 = alloca ptr, align 8
  %10 = alloca ptr, align 8
  %11 = alloca ptr, align 8
  %12 = alloca i64, align 8
  %13 = alloca i64, align 8
  %14 = alloca ptr, align 8
  store ptr %0, ptr %6, align 8
  %15 = zext i1 %1 to i8
  store i8 %15, ptr %7, align 1
  store i64 %2, ptr %8, align 8
  store ptr %3, ptr %9, align 8
  store ptr %4, ptr %10, align 8
  %16 = load ptr, ptr %10, align 8
  store ptr %16, ptr %11, align 8
  %17 = load ptr, ptr %9, align 8
  %18 = getelementptr inbounds i8, ptr %17, i32 1
  store ptr %18, ptr %9, align 8
  store i8 0, ptr %17, align 1
  %19 = load ptr, ptr %6, align 8
  %20 = load ptr, ptr %11, align 8
  %21 = getelementptr inbounds %struct.H5O_mdci_t, ptr %20, i32 0, i32 0
  %22 = load i64, ptr %21, align 8
  call void @H5F_addr_encode(ptr noundef %19, ptr noundef %9, i64 noundef %22)
  br label %23

23:                                               ; preds = %5
  %24 = load ptr, ptr %6, align 8
  %25 = call zeroext i8 @H5F_sizeof_size(ptr noundef %24)
  %26 = zext i8 %25 to i32
  switch i32 %26, label %121 [
    i32 4, label %27
    i32 8, label %65
    i32 2, label %99
  ]

27:                                               ; preds = %23
  br label %28

28:                                               ; preds = %27
  %29 = load ptr, ptr %11, align 8
  %30 = getelementptr inbounds %struct.H5O_mdci_t, ptr %29, i32 0, i32 1
  %31 = load i64, ptr %30, align 8
  %32 = and i64 %31, 255
  %33 = trunc i64 %32 to i8
  %34 = load ptr, ptr %9, align 8
  store i8 %33, ptr %34, align 1
  %35 = load ptr, ptr %9, align 8
  %36 = getelementptr inbounds i8, ptr %35, i32 1
  store ptr %36, ptr %9, align 8
  %37 = load ptr, ptr %11, align 8
  %38 = getelementptr inbounds %struct.H5O_mdci_t, ptr %37, i32 0, i32 1
  %39 = load i64, ptr %38, align 8
  %40 = lshr i64 %39, 8
  %41 = and i64 %40, 255
  %42 = trunc i64 %41 to i8
  %43 = load ptr, ptr %9, align 8
  store i8 %42, ptr %43, align 1
  %44 = load ptr, ptr %9, align 8
  %45 = getelementptr inbounds i8, ptr %44, i32 1
  store ptr %45, ptr %9, align 8
  %46 = load ptr, ptr %11, align 8
  %47 = getelementptr inbounds %struct.H5O_mdci_t, ptr %46, i32 0, i32 1
  %48 = load i64, ptr %47, align 8
  %49 = lshr i64 %48, 16
  %50 = and i64 %49, 255
  %51 = trunc i64 %50 to i8
  %52 = load ptr, ptr %9, align 8
  store i8 %51, ptr %52, align 1
  %53 = load ptr, ptr %9, align 8
  %54 = getelementptr inbounds i8, ptr %53, i32 1
  store ptr %54, ptr %9, align 8
  %55 = load ptr, ptr %11, align 8
  %56 = getelementptr inbounds %struct.H5O_mdci_t, ptr %55, i32 0, i32 1
  %57 = load i64, ptr %56, align 8
  %58 = lshr i64 %57, 24
  %59 = and i64 %58, 255
  %60 = trunc i64 %59 to i8
  %61 = load ptr, ptr %9, align 8
  store i8 %60, ptr %61, align 1
  %62 = load ptr, ptr %9, align 8
  %63 = getelementptr inbounds i8, ptr %62, i32 1
  store ptr %63, ptr %9, align 8
  br label %64

64:                                               ; preds = %28
  br label %122

65:                                               ; preds = %23
  br label %66

66:                                               ; preds = %65
  %67 = load ptr, ptr %11, align 8
  %68 = getelementptr inbounds %struct.H5O_mdci_t, ptr %67, i32 0, i32 1
  %69 = load i64, ptr %68, align 8
  store i64 %69, ptr %12, align 8
  %70 = load ptr, ptr %9, align 8
  store ptr %70, ptr %14, align 8
  store i64 0, ptr %13, align 8
  br label %71

71:                                               ; preds = %80, %66
  %72 = load i64, ptr %13, align 8
  %73 = icmp ult i64 %72, 8
  br i1 %73, label %74, label %85

74:                                               ; preds = %71
  %75 = load i64, ptr %12, align 8
  %76 = and i64 %75, 255
  %77 = trunc i64 %76 to i8
  %78 = load ptr, ptr %14, align 8
  %79 = getelementptr inbounds i8, ptr %78, i32 1
  store ptr %79, ptr %14, align 8
  store i8 %77, ptr %78, align 1
  br label %80

80:                                               ; preds = %74
  %81 = load i64, ptr %13, align 8
  %82 = add i64 %81, 1
  store i64 %82, ptr %13, align 8
  %83 = load i64, ptr %12, align 8
  %84 = lshr i64 %83, 8
  store i64 %84, ptr %12, align 8
  br label %71

85:                                               ; preds = %71
  br label %86

86:                                               ; preds = %92, %85
  %87 = load i64, ptr %13, align 8
  %88 = icmp ult i64 %87, 8
  br i1 %88, label %89, label %95

89:                                               ; preds = %86
  %90 = load ptr, ptr %14, align 8
  %91 = getelementptr inbounds i8, ptr %90, i32 1
  store ptr %91, ptr %14, align 8
  store i8 0, ptr %90, align 1
  br label %92

92:                                               ; preds = %89
  %93 = load i64, ptr %13, align 8
  %94 = add i64 %93, 1
  store i64 %94, ptr %13, align 8
  br label %86

95:                                               ; preds = %86
  %96 = load ptr, ptr %9, align 8
  %97 = getelementptr inbounds i8, ptr %96, i64 8
  store ptr %97, ptr %9, align 8
  br label %98

98:                                               ; preds = %95
  br label %122

99:                                               ; preds = %23
  br label %100

100:                                              ; preds = %99
  %101 = load ptr, ptr %11, align 8
  %102 = getelementptr inbounds %struct.H5O_mdci_t, ptr %101, i32 0, i32 1
  %103 = load i64, ptr %102, align 8
  %104 = trunc i64 %103 to i32
  %105 = and i32 %104, 255
  %106 = trunc i32 %105 to i8
  %107 = load ptr, ptr %9, align 8
  store i8 %106, ptr %107, align 1
  %108 = load ptr, ptr %9, align 8
  %109 = getelementptr inbounds i8, ptr %108, i32 1
  store ptr %109, ptr %9, align 8
  %110 = load ptr, ptr %11, align 8
  %111 = getelementptr inbounds %struct.H5O_mdci_t, ptr %110, i32 0, i32 1
  %112 = load i64, ptr %111, align 8
  %113 = trunc i64 %112 to i32
  %114 = lshr i32 %113, 8
  %115 = and i32 %114, 255
  %116 = trunc i32 %115 to i8
  %117 = load ptr, ptr %9, align 8
  store i8 %116, ptr %117, align 1
  %118 = load ptr, ptr %9, align 8
  %119 = getelementptr inbounds i8, ptr %118, i32 1
  store ptr %119, ptr %9, align 8
  br label %120

120:                                              ; preds = %100
  br label %122

121:                                              ; preds = %23
  br label %122

122:                                              ; preds = %121, %120, %98, %64
  br label %123

123:                                              ; preds = %122
  ret i32 0
}