; Function Attrs: nounwind uwtable
define internal noundef i32 @H5O__mdci_encode(ptr noundef %0, i1 zeroext %1, i64 %2, ptr noundef %3, ptr nocapture noundef readonly %4) #0 {
  %6 = alloca ptr, align 8
  %7 = getelementptr inbounds i8, ptr %3, i64 1
  store ptr %7, ptr %6, align 8
  store i8 0, ptr %3, align 1
  %8 = load i64, ptr %4, align 8
  call void @H5F_addr_encode(ptr noundef %0, ptr noundef nonnull %6, i64 noundef %8) #5
  %9 = call zeroext i8 @H5F_sizeof_size(ptr noundef %0) #5
  switch i8 %9, label %.loopexit [
    i8 4, label %10
    i8 8, label %25
    i8 2, label %34
  ]

10:                                               ; preds = %5
  %11 = getelementptr inbounds i8, ptr %4, i64 8
  %12 = load i64, ptr %11, align 8
  %13 = trunc i64 %12 to i8
  %14 = load ptr, ptr %6, align 8
  store i8 %13, ptr %14, align 1
  %15 = load ptr, ptr %6, align 8
  %16 = getelementptr inbounds i8, ptr %15, i64 1
  store ptr %16, ptr %6, align 8
  %17 = load i64, ptr %11, align 8
  %18 = lshr i64 %17, 8
  %19 = trunc i64 %18 to i8
  store i8 %19, ptr %16, align 1
  %20 = load ptr, ptr %6, align 8
  %21 = getelementptr inbounds i8, ptr %20, i64 1
  store ptr %21, ptr %6, align 8
  %22 = load i64, ptr %11, align 8
  %23 = lshr i64 %22, 16
  %24 = trunc i64 %23 to i8
  store i8 %24, ptr %21, align 1
  br label %.sink.split

25:                                               ; preds = %5
  %26 = getelementptr inbounds i8, ptr %4, i64 8
  %27 = load i64, ptr %26, align 8
  %28 = load ptr, ptr %6, align 8
  br label %29

29:                                               ; preds = %25, %29
  %.023 = phi ptr [ %28, %25 ], [ %31, %29 ]
  %.01822 = phi i64 [ 0, %25 ], [ %32, %29 ]
  %.02021 = phi i64 [ %27, %25 ], [ %33, %29 ]
  %30 = trunc i64 %.02021 to i8
  %31 = getelementptr inbounds i8, ptr %.023, i64 1
  store i8 %30, ptr %.023, align 1
  %32 = add nuw nsw i64 %.01822, 1
  %33 = lshr i64 %.02021, 8
  %exitcond.not = icmp eq i64 %32, 8
  br i1 %exitcond.not, label %.loopexit, label %29

34:                                               ; preds = %5
  %35 = getelementptr inbounds i8, ptr %4, i64 8
  %36 = load i64, ptr %35, align 8
  %37 = trunc i64 %36 to i8
  %38 = load ptr, ptr %6, align 8
  store i8 %37, ptr %38, align 1
  br label %.sink.split

.sink.split:                                      ; preds = %34, %10
  %.sink27 = phi ptr [ %11, %10 ], [ %35, %34 ]
  %.sink26 = phi i64 [ 24, %10 ], [ 8, %34 ]
  %.sink = load ptr, ptr %6, align 8
  %39 = getelementptr inbounds i8, ptr %.sink, i64 1
  %40 = load i64, ptr %.sink27, align 8
  %41 = lshr i64 %40, %.sink26
  %42 = trunc i64 %41 to i8
  store i8 %42, ptr %39, align 1
  br label %.loopexit

.loopexit:                                        ; preds = %29, %.sink.split, %5
  ret i32 0
}